(i__main__
LogFile
p0
(dp1
S'_installed_files'
p2
(dp3
S'../../../../../../../../cvmfs/atlas.cern.ch/repo/sw/software/AthAnalysisBase/x86_64-slc6-gcc49-opt/2.4.18/GAUDI/v26r2p1-lcg81e/GaudiPolicy/cmt/fragments/__init__.py'
p4
S'../../InstallArea/python/DisplacedDimuonAnalysis/__init__.py'
p5
sS'../../../DisplacedDimuonAnalysis/x86_64-slc6-gcc49-opt/libDisplacedDimuonAnalysis.so'
p6
S'../../InstallArea/x86_64-slc6-gcc49-opt/lib/libDisplacedDimuonAnalysis.so'
p7
sS'../../DisplacedDimuonAnalysis/genConf/DisplacedDimuonAnalysis'
p8
(dp9
S'../../../DisplacedDimuonAnalysis/genConf/DisplacedDimuonAnalysis/DisplacedDimuonAnalysisConf.py'
p10
S'../../InstallArea/python/DisplacedDimuonAnalysis/DisplacedDimuonAnalysisConf.py'
p11
sssb.