(i__main__
LogFile
p0
(dp1
S'_installed_files'
p2
(dp3
S'../../DisplacedDimuonAnalysis/genConf/DisplacedDimuonAnalysis'
p4
(dp5
S'../../../DisplacedDimuonAnalysis/genConf/DisplacedDimuonAnalysis/DisplacedDimuonAnalysisConf.py'
p6
S'../../InstallArea/python/DisplacedDimuonAnalysis/DisplacedDimuonAnalysisConf.py'
p7
sssb.